; Function Attrs: null_pointer_is_valid sspstrong uwtable
define internal i32 @dissect_emreq(ptr noundef %0, ptr noundef readonly captures(none) %1, ptr noundef %2, ptr readnone captures(none) %3) #0 {
  %5 = alloca i32, align 4
  %6 = alloca i32, align 4
  call void @llvm.lifetime.start.p0(i64 4, ptr nonnull %5) #6
  call void @llvm.lifetime.start.p0(i64 4, ptr nonnull %6) #6
  %7 = load i32, ptr @proto_docsis_emreq, align 4
  %8 = tail call ptr @proto_tree_add_item(ptr noundef %2, i32 noundef %7, ptr noundef %0, i32 noundef 0, i32 noundef -1, i32 noundef 0)
  %9 = load i32, ptr @ett_docsis_emreq, align 4
  %10 = tail call ptr @proto_item_add_subtree(ptr noundef %8, i32 noundef %9)
  %11 = load i32, ptr @hf_docsis_mgt_tranid, align 4
  %12 = call ptr @proto_tree_add_item_ret_uint(ptr noundef %10, i32 noundef %11, ptr noundef %0, i32 noundef 0, i32 noundef 2, i32 noundef 0, ptr noundef nonnull %5)
  %13 = load i32, ptr @hf_docsis_emreq_req_power_mode, align 4
  %14 = call ptr @proto_tree_add_item_ret_uint(ptr noundef %10, i32 noundef %13, ptr noundef %0, i32 noundef 2, i32 noundef 1, i32 noundef 0, ptr noundef nonnull %6)
  %15 = load i32, ptr @hf_docsis_emreq_reserved, align 4
  %16 = call ptr @proto_tree_add_item(ptr noundef %10, i32 noundef %15, ptr noundef %0, i32 noundef 3, i32 noundef 1, i32 noundef 0)
  %17 = getelementptr inbounds nuw i8, ptr %1, i64 8
  %18 = load ptr, ptr %17, align 8
  %19 = load i32, ptr %5, align 4
  %20 = load i32, ptr %6, align 4
  %21 = call ptr @val_to_str(i32 noundef %20, ptr noundef nonnull @emreq_req_power_mode_vals, ptr noundef nonnull @.str.2218)
  %22 = load i32, ptr %6, align 4
  call void (ptr, i32, ptr, ...) @col_add_fstr(ptr noundef %18, i32 noundef 25, ptr noundef nonnull @.str.2217, i32 noundef %19, ptr noundef %21, i32 noundef %22)
  %23 = call i32 @tvb_captured_length(ptr noundef %0)
  call void @llvm.lifetime.end.p0(i64 4, ptr nonnull %6) #6
  call void @llvm.lifetime.end.p0(i64 4, ptr nonnull %5) #6
  ret i32 %23
}